target datalayout = "e-m:e-p270:32:32-p271:32:32-p272:64:64-i64:64-i128:128-f80:128-n8:16:32:64-S128"
target triple = "x86_64-unknown-linux-gnu"

%struct.ParallelsHeader = type <{ [16 x i8], i32, i32, i32, i32, i32, i64, i32, i32, i32, i64 }>
%struct.BlockdevCreateOptions = type { i32, %union.anon.13 }
%union.anon.13 = type { %struct.BlockdevCreateOptionsQcow2 }
%struct.BlockdevCreateOptionsQcow2 = type { ptr, ptr, i8, i8, i8, i8, i64, i8, i32, ptr, i8, i32, ptr, i8, i64, i8, i32, i8, i8, i8, i64, i8, i32 }
%struct.BlockdevCreateOptionsParallels = type { ptr, i64, i8, i64 }

@.str.10 = private unnamed_addr constant [17 x i8] c"WithouFreSpacExt\00", align 1
@.str.11 = private unnamed_addr constant [26 x i8] c"../qemu/block/parallels.c\00", align 1
@.str.27 = private unnamed_addr constant [42 x i8] c"opts->driver == BLOCKDEV_DRIVER_PARALLELS\00", align 1
@__PRETTY_FUNCTION__.parallels_co_create = private unnamed_addr constant [59 x i8] c"int parallels_co_create(BlockdevCreateOptions *, Error **)\00", align 1
@__func__.parallels_co_create = private unnamed_addr constant [20 x i8] c"parallels_co_create\00", align 1
@.str.28 = private unnamed_addr constant [26 x i8] c"Cluster size is too large\00", align 1
@.str.29 = private unnamed_addr constant [46 x i8] c"Image size is too large for this cluster size\00", align 1
@.str.30 = private unnamed_addr constant [43 x i8] c"Image size must be a multiple of 512 bytes\00", align 1
@.str.31 = private unnamed_addr constant [45 x i8] c"Cluster size must be a multiple of 512 bytes\00", align 1
@.str.32 = private unnamed_addr constant [33 x i8] c"Failed to create Parallels image\00", align 1

; Function Attrs: nounwind sspstrong uwtable
define internal i64 @cpu_to_le64(i64 noundef %v) #0 {
entry:
  %v.addr = alloca i64, align 8
  store i64 %v, ptr %v.addr, align 8
  %0 = load i64, ptr %v.addr, align 8
  ret i64 %0
}

; Function Attrs: nounwind sspstrong uwtable
define internal i32 @cpu_to_le32(i32 noundef %v) #0 {
entry:
  %v.addr = alloca i32, align 4
  store i32 %v, ptr %v.addr, align 4
  %0 = load i32, ptr %v.addr, align 4
  ret i32 %0
}

; Function Attrs: nounwind sspstrong uwtable
define internal i32 @bat_entry_off(i32 noundef %idx) #0 {
entry:
  %idx.addr = alloca i32, align 4
  store i32 %idx, ptr %idx.addr, align 4
  %0 = load i32, ptr %idx.addr, align 4
  %conv = zext i32 %0 to i64
  %mul = mul i64 4, %conv
  %add = add i64 64, %mul
  %conv1 = trunc i64 %add to i32
  ret i32 %conv1
}

; Function Attrs: nounwind sspstrong uwtable
define internal i32 @parallels_co_create(ptr noundef %opts, ptr noundef %errp) #0 {
entry:
  %retval = alloca i32, align 4
  %opts.addr = alloca ptr, align 8
  %errp.addr = alloca ptr, align 8
  %parallels_opts = alloca ptr, align 8
  %bs = alloca ptr, align 8
  %blk = alloca ptr, align 8
  %total_size = alloca i64, align 8
  %cl_size = alloca i64, align 8
  %bat_entries = alloca i32, align 4
  %bat_sectors = alloca i32, align 4
  %header = alloca %struct.ParallelsHeader, align 1
  %tmp = alloca [512 x i8], align 16
  %ret = alloca i32, align 4
  store ptr %opts, ptr %opts.addr, align 8
  store ptr %errp, ptr %errp.addr, align 8
  %0 = load ptr, ptr %opts.addr, align 8
  %driver = getelementptr inbounds %struct.BlockdevCreateOptions, ptr %0, i32 0, i32 0
  %1 = load i32, ptr %driver, align 8
  %cmp = icmp eq i32 %1, 26
  br i1 %cmp, label %if.then, label %if.else

if.then:                                          ; preds = %entry
  br label %if.end

if.else:                                          ; preds = %entry
  call void @__assert_fail(ptr noundef @.str.27, ptr noundef @.str.11, i32 noundef 1007, ptr noundef @__PRETTY_FUNCTION__.parallels_co_create) #10
  unreachable

if.end:                                           ; preds = %if.then
  %2 = load ptr, ptr %opts.addr, align 8
  %u = getelementptr inbounds %struct.BlockdevCreateOptions, ptr %2, i32 0, i32 1
  store ptr %u, ptr %parallels_opts, align 8
  %3 = load ptr, ptr %parallels_opts, align 8
  %size = getelementptr inbounds %struct.BlockdevCreateOptionsParallels, ptr %3, i32 0, i32 1
  %4 = load i64, ptr %size, align 8
  store i64 %4, ptr %total_size, align 8
  %5 = load ptr, ptr %parallels_opts, align 8
  %has_cluster_size = getelementptr inbounds %struct.BlockdevCreateOptionsParallels, ptr %5, i32 0, i32 2
  %6 = load i8, ptr %has_cluster_size, align 8
  %tobool = trunc i8 %6 to i1
  br i1 %tobool, label %if.then1, label %if.else2

if.then1:                                         ; preds = %if.end
  %7 = load ptr, ptr %parallels_opts, align 8
  %cluster_size = getelementptr inbounds %struct.BlockdevCreateOptionsParallels, ptr %7, i32 0, i32 3
  %8 = load i64, ptr %cluster_size, align 8
  store i64 %8, ptr %cl_size, align 8
  br label %if.end3

if.else2:                                         ; preds = %if.end
  store i64 1048576, ptr %cl_size, align 8
  br label %if.end3

if.end3:                                          ; preds = %if.else2, %if.then1
  %9 = load i64, ptr %cl_size, align 8
  %cmp4 = icmp uge i64 %9, 2147483647
  br i1 %cmp4, label %if.then5, label %if.end6

if.then5:                                         ; preds = %if.end3
  %10 = load ptr, ptr %errp.addr, align 8
  call void (ptr, ptr, i32, ptr, ptr, ...) @error_setg_internal(ptr noundef %10, ptr noundef @.str.11, i32 noundef 1021, ptr noundef @__func__.parallels_co_create, ptr noundef @.str.28)
  store i32 -22, ptr %retval, align 4
  br label %return

if.end6:                                          ; preds = %if.end3
  %11 = load i64, ptr %total_size, align 8
  %12 = load i64, ptr %cl_size, align 8
  %mul = mul i64 4294967296, %12
  %cmp7 = icmp uge i64 %11, %mul
  br i1 %cmp7, label %if.then8, label %if.end9

if.then8:                                         ; preds = %if.end6
  %13 = load ptr, ptr %errp.addr, align 8
  call void (ptr, ptr, i32, ptr, ptr, ...) @error_setg_internal(ptr noundef %13, ptr noundef @.str.11, i32 noundef 1025, ptr noundef @__func__.parallels_co_create, ptr noundef @.str.29)
  store i32 -7, ptr %retval, align 4
  br label %return

if.end9:                                          ; preds = %if.end6
  %14 = load i64, ptr %total_size, align 8
  %rem = urem i64 %14, 512
  %cmp10 = icmp eq i64 %rem, 0
  br i1 %cmp10, label %if.end12, label %if.then11

if.then11:                                        ; preds = %if.end9
  %15 = load ptr, ptr %errp.addr, align 8
  call void (ptr, ptr, i32, ptr, ptr, ...) @error_setg_internal(ptr noundef %15, ptr noundef @.str.11, i32 noundef 1030, ptr noundef @__func__.parallels_co_create, ptr noundef @.str.30)
  store i32 -22, ptr %retval, align 4
  br label %return

if.end12:                                         ; preds = %if.end9
  %16 = load i64, ptr %cl_size, align 8
  %rem13 = urem i64 %16, 512
  %cmp14 = icmp eq i64 %rem13, 0
  br i1 %cmp14, label %if.end16, label %if.then15

if.then15:                                        ; preds = %if.end12
  %17 = load ptr, ptr %errp.addr, align 8
  call void (ptr, ptr, i32, ptr, ptr, ...) @error_setg_internal(ptr noundef %17, ptr noundef @.str.11, i32 noundef 1035, ptr noundef @__func__.parallels_co_create, ptr noundef @.str.31)
  store i32 -22, ptr %retval, align 4
  br label %return

if.end16:                                         ; preds = %if.end12
  %18 = load ptr, ptr %parallels_opts, align 8
  %file = getelementptr inbounds %struct.BlockdevCreateOptionsParallels, ptr %18, i32 0, i32 0
  %19 = load ptr, ptr %file, align 8
  %20 = load ptr, ptr %errp.addr, align 8
  %call = call ptr @bdrv_co_open_blockdev_ref(ptr noundef %19, ptr noundef %20)
  store ptr %call, ptr %bs, align 8
  %21 = load ptr, ptr %bs, align 8
  %cmp17 = icmp eq ptr %21, null
  br i1 %cmp17, label %if.then18, label %if.end19

if.then18:                                        ; preds = %if.end16
  store i32 -5, ptr %retval, align 4
  br label %return

if.end19:                                         ; preds = %if.end16
  %22 = load ptr, ptr %bs, align 8
  %23 = load ptr, ptr %errp.addr, align 8
  %call20 = call ptr @blk_co_new_with_bs(ptr noundef %22, i64 noundef 10, i64 noundef 15, ptr noundef %23)
  store ptr %call20, ptr %blk, align 8
  %24 = load ptr, ptr %blk, align 8
  %tobool21 = icmp ne ptr %24, null
  br i1 %tobool21, label %if.end23, label %if.then22

if.then22:                                        ; preds = %if.end19
  store i32 -1, ptr %ret, align 4
  br label %out

if.end23:                                         ; preds = %if.end19
  %25 = load ptr, ptr %blk, align 8
  call void @blk_set_allow_write_beyond_eof(ptr noundef %25, i1 noundef zeroext true)
  %26 = load i64, ptr %total_size, align 8
  %27 = load i64, ptr %cl_size, align 8
  %add = add i64 %26, %27
  %sub = sub i64 %add, 1
  %28 = load i64, ptr %cl_size, align 8
  %div = sdiv i64 %sub, %28
  %conv = trunc i64 %div to i32
  store i32 %conv, ptr %bat_entries, align 4
  %29 = load i32, ptr %bat_entries, align 4
  %call24 = call i32 @bat_entry_off(i32 noundef %29)
  %conv25 = zext i32 %call24 to i64
  %30 = load i64, ptr %cl_size, align 8
  %add26 = add i64 %conv25, %30
  %sub27 = sub i64 %add26, 1
  %31 = load i64, ptr %cl_size, align 8
  %div28 = sdiv i64 %sub27, %31
  %conv29 = trunc i64 %div28 to i32
  store i32 %conv29, ptr %bat_sectors, align 4
  %32 = load i32, ptr %bat_sectors, align 4
  %conv30 = zext i32 %32 to i64
  %33 = load i64, ptr %cl_size, align 8
  %mul31 = mul i64 %conv30, %33
  %shr = ashr i64 %mul31, 9
  %conv32 = trunc i64 %shr to i32
  store i32 %conv32, ptr %bat_sectors, align 4
  call void @llvm.memset.p0.i64(ptr align 1 %header, i8 0, i64 64, i1 false)
  %magic = getelementptr inbounds %struct.ParallelsHeader, ptr %header, i32 0, i32 0
  %arraydecay = getelementptr inbounds [16 x i8], ptr %magic, i64 0, i64 0
  call void @llvm.memcpy.p0.p0.i64(ptr align 1 %arraydecay, ptr align 1 @.str.10, i64 16, i1 false)
  %call33 = call i32 @cpu_to_le32(i32 noundef 2)
  %version = getelementptr inbounds %struct.ParallelsHeader, ptr %header, i32 0, i32 1
  store i32 %call33, ptr %version, align 1
  %call34 = call i32 @cpu_to_le32(i32 noundef 16)
  %heads = getelementptr inbounds %struct.ParallelsHeader, ptr %header, i32 0, i32 2
  store i32 %call34, ptr %heads, align 1
  %34 = load i64, ptr %total_size, align 8
  %div35 = udiv i64 %34, 512
  %div36 = udiv i64 %div35, 16
  %div37 = udiv i64 %div36, 32
  %conv38 = trunc i64 %div37 to i32
  %call39 = call i32 @cpu_to_le32(i32 noundef %conv38)
  %cylinders = getelementptr inbounds %struct.ParallelsHeader, ptr %header, i32 0, i32 3
  store i32 %call39, ptr %cylinders, align 1
  %35 = load i64, ptr %cl_size, align 8
  %shr40 = ashr i64 %35, 9
  %conv41 = trunc i64 %shr40 to i32
  %call42 = call i32 @cpu_to_le32(i32 noundef %conv41)
  %tracks = getelementptr inbounds %struct.ParallelsHeader, ptr %header, i32 0, i32 4
  store i32 %call42, ptr %tracks, align 1
  %36 = load i32, ptr %bat_entries, align 4
  %call43 = call i32 @cpu_to_le32(i32 noundef %36)
  %bat_entries44 = getelementptr inbounds %struct.ParallelsHeader, ptr %header, i32 0, i32 5
  store i32 %call43, ptr %bat_entries44, align 1
  %37 = load i64, ptr %total_size, align 8
  %add45 = add i64 %37, 512
  %sub46 = sub i64 %add45, 1
  %div47 = udiv i64 %sub46, 512
  %call48 = call i64 @cpu_to_le64(i64 noundef %div47)
  %nb_sectors = getelementptr inbounds %struct.ParallelsHeader, ptr %header, i32 0, i32 6
  store i64 %call48, ptr %nb_sectors, align 1
  %38 = load i32, ptr %bat_sectors, align 4
  %call49 = call i32 @cpu_to_le32(i32 noundef %38)
  %data_off = getelementptr inbounds %struct.ParallelsHeader, ptr %header, i32 0, i32 8
  store i32 %call49, ptr %data_off, align 1
  %arraydecay50 = getelementptr inbounds [512 x i8], ptr %tmp, i64 0, i64 0
  call void @llvm.memset.p0.i64(ptr align 16 %arraydecay50, i8 0, i64 512, i1 false)
  %arraydecay51 = getelementptr inbounds [512 x i8], ptr %tmp, i64 0, i64 0
  call void @llvm.memcpy.p0.p0.i64(ptr align 16 %arraydecay51, ptr align 1 %header, i64 64, i1 false)
  %39 = load ptr, ptr %blk, align 8
  %arraydecay52 = getelementptr inbounds [512 x i8], ptr %tmp, i64 0, i64 0
  %call53 = call i32 @blk_co_pwrite(ptr noundef %39, i64 noundef 0, i64 noundef 512, ptr noundef %arraydecay52, i32 noundef 0)
  store i32 %call53, ptr %ret, align 4
  %40 = load i32, ptr %ret, align 4
  %cmp54 = icmp slt i32 %40, 0
  br i1 %cmp54, label %if.then56, label %if.end57

if.then56:                                        ; preds = %if.end23
  br label %exit

if.end57:                                         ; preds = %if.end23
  %41 = load ptr, ptr %blk, align 8
  %42 = load i32, ptr %bat_sectors, align 4
  %sub58 = sub i32 %42, 1
  %shl = shl i32 %sub58, 9
  %conv59 = zext i32 %shl to i64
  %call60 = call i32 @blk_co_pwrite_zeroes(ptr noundef %41, i64 noundef 512, i64 noundef %conv59, i32 noundef 0)
  store i32 %call60, ptr %ret, align 4
  %43 = load i32, ptr %ret, align 4
  %cmp61 = icmp slt i32 %43, 0
  br i1 %cmp61, label %if.then63, label %if.end64

if.then63:                                        ; preds = %if.end57
  br label %exit

if.end64:                                         ; preds = %if.end57
  store i32 0, ptr %ret, align 4
  br label %out

out:                                              ; preds = %exit, %if.end64, %if.then22
  %44 = load ptr, ptr %blk, align 8
  call void @blk_co_unref(ptr noundef %44)
  %45 = load ptr, ptr %bs, align 8
  call void @bdrv_co_unref(ptr noundef %45)
  %46 = load i32, ptr %ret, align 4
  store i32 %46, ptr %retval, align 4
  br label %return

exit:                                             ; preds = %if.then63, %if.then56
  %47 = load ptr, ptr %errp.addr, align 8
  %48 = load i32, ptr %ret, align 4
  %sub65 = sub i32 0, %48
  call void (ptr, ptr, i32, ptr, i32, ptr, ...) @error_setg_errno_internal(ptr noundef %47, ptr noundef @.str.11, i32 noundef 1091, ptr noundef @__func__.parallels_co_create, i32 noundef %sub65, ptr noundef @.str.32)
  br label %out

return:                                           ; preds = %out, %if.then18, %if.then15, %if.then11, %if.then8, %if.then5
  %49 = load i32, ptr %retval, align 4
  ret i32 %49
}