; Function Attrs: nounwind sspstrong uwtable
define internal range(i32 -2147483648, 1) i32 @parallels_co_create(ptr noundef readonly captures(none) %opts, ptr noundef %errp) #0 {
entry:
  %tmp = alloca [512 x i8], align 16
  %0 = load i32, ptr %opts, align 8
  %cmp = icmp eq i32 %0, 26
  br i1 %cmp, label %if.end, label %if.else

if.else:                                          ; preds = %entry
  tail call void @__assert_fail(ptr noundef nonnull @.str.27, ptr noundef nonnull @.str.11, i32 noundef 1007, ptr noundef nonnull @__PRETTY_FUNCTION__.parallels_co_create) #18
  unreachable

if.end:                                           ; preds = %entry
  %u = getelementptr inbounds nuw i8, ptr %opts, i64 8
  %size = getelementptr inbounds nuw i8, ptr %opts, i64 16
  %1 = load i64, ptr %size, align 8
  %has_cluster_size = getelementptr inbounds nuw i8, ptr %opts, i64 24
  %2 = load i8, ptr %has_cluster_size, align 8
  %tobool = trunc i8 %2 to i1
  br i1 %tobool, label %if.end3, label %if.end6

if.end3:                                          ; preds = %if.end
  %cluster_size = getelementptr inbounds nuw i8, ptr %opts, i64 32
  %3 = load i64, ptr %cluster_size, align 8
  %cmp4 = icmp ugt i64 %3, 2147483646
  br i1 %cmp4, label %if.then5, label %if.end6

if.then5:                                         ; preds = %if.end3
  tail call void (ptr, ptr, i32, ptr, ptr, ...) @error_setg_internal(ptr noundef %errp, ptr noundef nonnull @.str.11, i32 noundef 1021, ptr noundef nonnull @__func__.parallels_co_create, ptr noundef nonnull @.str.28) #16
  br label %return

if.end6:                                          ; preds = %if.end, %if.end3
  %cl_size.042 = phi i64 [ %3, %if.end3 ], [ 1048576, %if.end ]
  %mul = shl nuw nsw i64 %cl_size.042, 32
  %cmp7.not = icmp ult i64 %1, %mul
  br i1 %cmp7.not, label %if.end9, label %if.then8

if.then8:                                         ; preds = %if.end6
  tail call void (ptr, ptr, i32, ptr, ptr, ...) @error_setg_internal(ptr noundef %errp, ptr noundef nonnull @.str.11, i32 noundef 1025, ptr noundef nonnull @__func__.parallels_co_create, ptr noundef nonnull @.str.29) #16
  br label %return

if.end9:                                          ; preds = %if.end6
  %rem = and i64 %1, 511
  %cmp10 = icmp eq i64 %rem, 0
  br i1 %cmp10, label %if.end12, label %if.then11

if.then11:                                        ; preds = %if.end9
  tail call void (ptr, ptr, i32, ptr, ptr, ...) @error_setg_internal(ptr noundef %errp, ptr noundef nonnull @.str.11, i32 noundef 1030, ptr noundef nonnull @__func__.parallels_co_create, ptr noundef nonnull @.str.30) #16
  br label %return

if.end12:                                         ; preds = %if.end9
  %rem13 = and i64 %cl_size.042, 511
  %cmp14 = icmp eq i64 %rem13, 0
  br i1 %cmp14, label %if.end16, label %if.then15

if.then15:                                        ; preds = %if.end12
  tail call void (ptr, ptr, i32, ptr, ptr, ...) @error_setg_internal(ptr noundef %errp, ptr noundef nonnull @.str.11, i32 noundef 1035, ptr noundef nonnull @__func__.parallels_co_create, ptr noundef nonnull @.str.31) #16
  br label %return

if.end16:                                         ; preds = %if.end12
  %4 = load ptr, ptr %u, align 8
  %call = tail call ptr @bdrv_co_open_blockdev_ref(ptr noundef %4, ptr noundef %errp) #16
  %cmp17 = icmp eq ptr %call, null
  br i1 %cmp17, label %return, label %if.end19

if.end19:                                         ; preds = %if.end16
  %call20 = tail call ptr @blk_co_new_with_bs(ptr noundef nonnull %call, i64 noundef 10, i64 noundef 15, ptr noundef %errp) #16
  %tobool21.not = icmp eq ptr %call20, null
  br i1 %tobool21.not, label %out, label %if.end23

if.end23:                                         ; preds = %if.end19
  tail call void @blk_set_allow_write_beyond_eof(ptr noundef nonnull %call20, i1 noundef zeroext true) #16
  %add = add nsw i64 %1, -1
  %sub = add nsw i64 %add, %cl_size.042
  %div = sdiv i64 %sub, %cl_size.042
  %conv = trunc i64 %div to i32
  %mul.i = shl i64 %div, 2
  %add.i = add i64 %mul.i, 64
  %conv25 = and i64 %add.i, 4294967292
  %add26 = add nsw i64 %cl_size.042, -1
  %sub27 = add nsw i64 %add26, %conv25
  %div28 = sdiv i64 %sub27, %cl_size.042
  %conv30 = and i64 %div28, 4294967295
  %mul31 = mul nuw nsw i64 %conv30, %cl_size.042
  %shr = lshr exact i64 %mul31, 9
  %conv32 = trunc i64 %shr to i32
  call void @llvm.memcpy.p0.p0.i64(ptr noundef nonnull align 16 dereferenceable(16) %tmp, ptr noundef nonnull align 1 dereferenceable(16) @.str.10, i64 16, i1 false)
  %div3738 = lshr i64 %1, 18
  %conv38 = trunc i64 %div3738 to i32
  %shr40 = lshr exact i64 %cl_size.042, 9
  %conv41 = trunc nuw nsw i64 %shr40 to i32
  %div4739 = lshr exact i64 %1, 9
  %5 = getelementptr inbounds nuw i8, ptr %tmp, i64 64
  call void @llvm.memset.p0.i64(ptr noundef nonnull align 16 dereferenceable(448) %5, i8 0, i64 448, i1 false)
  %header.sroa.3.0.arraydecay51.sroa_idx = getelementptr inbounds nuw i8, ptr %tmp, i64 16
  store i32 2, ptr %header.sroa.3.0.arraydecay51.sroa_idx, align 16
  %header.sroa.4.0.arraydecay51.sroa_idx = getelementptr inbounds nuw i8, ptr %tmp, i64 20
  store i32 16, ptr %header.sroa.4.0.arraydecay51.sroa_idx, align 4
  %header.sroa.5.0.arraydecay51.sroa_idx = getelementptr inbounds nuw i8, ptr %tmp, i64 24
  store i32 %conv38, ptr %header.sroa.5.0.arraydecay51.sroa_idx, align 8
  %header.sroa.6.0.arraydecay51.sroa_idx = getelementptr inbounds nuw i8, ptr %tmp, i64 28
  store i32 %conv41, ptr %header.sroa.6.0.arraydecay51.sroa_idx, align 4
  %header.sroa.7.0.arraydecay51.sroa_idx = getelementptr inbounds nuw i8, ptr %tmp, i64 32
  store i32 %conv, ptr %header.sroa.7.0.arraydecay51.sroa_idx, align 16
  %header.sroa.8.0.arraydecay51.sroa_idx = getelementptr inbounds nuw i8, ptr %tmp, i64 36
  store i64 %div4739, ptr %header.sroa.8.0.arraydecay51.sroa_idx, align 4
  %header.sroa.9.0.arraydecay51.sroa_idx = getelementptr inbounds nuw i8, ptr %tmp, i64 44
  store i32 0, ptr %header.sroa.9.0.arraydecay51.sroa_idx, align 4
  %header.sroa.94.0.arraydecay51.sroa_idx = getelementptr inbounds nuw i8, ptr %tmp, i64 48
  store i32 %conv32, ptr %header.sroa.94.0.arraydecay51.sroa_idx, align 16
  %header.sroa.10.0.arraydecay51.sroa_idx = getelementptr inbounds nuw i8, ptr %tmp, i64 52
  call void @llvm.memset.p0.i64(ptr noundef nonnull align 4 dereferenceable(12) %header.sroa.10.0.arraydecay51.sroa_idx, i8 0, i64 12, i1 false)
  %call53 = call i32 @blk_co_pwrite(ptr noundef nonnull %call20, i64 noundef 0, i64 noundef 512, ptr noundef nonnull %tmp, i32 noundef 0) #16
  %cmp54 = icmp slt i32 %call53, 0
  br i1 %cmp54, label %exit, label %if.end57

if.end57:                                         ; preds = %if.end23
  %shl = add nuw nsw i64 %mul31, 4294966784
  %conv59 = and i64 %shl, 4294966784
  %call60 = call i32 @blk_co_pwrite_zeroes(ptr noundef nonnull %call20, i64 noundef 512, i64 noundef %conv59, i32 noundef 0) #16
  %cmp61 = icmp slt i32 %call60, 0
  br i1 %cmp61, label %exit, label %out

out:                                              ; preds = %if.end57, %if.end19, %exit
  %ret.0 = phi i32 [ %ret.1, %exit ], [ -1, %if.end19 ], [ 0, %if.end57 ]
  call void @blk_co_unref(ptr noundef %call20) #16
  call void @bdrv_co_unref(ptr noundef nonnull %call) #16
  br label %return

exit:                                             ; preds = %if.end57, %if.end23
  %ret.1 = phi i32 [ %call53, %if.end23 ], [ %call60, %if.end57 ]
  %sub65 = sub i32 0, %ret.1
  call void (ptr, ptr, i32, ptr, i32, ptr, ...) @error_setg_errno_internal(ptr noundef %errp, ptr noundef nonnull @.str.11, i32 noundef 1091, ptr noundef nonnull @__func__.parallels_co_create, i32 noundef %sub65, ptr noundef nonnull @.str.32) #16
  br label %out

return:                                           ; preds = %if.end16, %out, %if.then15, %if.then11, %if.then8, %if.then5
  %retval.0 = phi i32 [ -22, %if.then5 ], [ -7, %if.then8 ], [ %ret.0, %out ], [ -22, %if.then15 ], [ -22, %if.then11 ], [ -5, %if.end16 ]
  ret i32 %retval.0
}